; Function Attrs: mustprogress nofree norecurse nosync nounwind willreturn memory(argmem: readwrite) uwtable
define hidden void @nghttp2_frame_priority_init(ptr noundef writeonly captures(none) initializes((0, 15), (16, 28)) %0, i32 noundef %1, ptr noundef readonly captures(none) %2) local_unnamed_addr #4 {
  store i64 5, ptr %0, align 8, !tbaa !3
  %4 = getelementptr inbounds nuw i8, ptr %0, i64 12
  store i8 2, ptr %4, align 4, !tbaa !9
  %5 = getelementptr inbounds nuw i8, ptr %0, i64 13
  store i8 0, ptr %5, align 1, !tbaa !11
  %6 = getelementptr inbounds nuw i8, ptr %0, i64 8
  store i32 %1, ptr %6, align 8, !tbaa !12
  %7 = getelementptr inbounds nuw i8, ptr %0, i64 14
  store i8 0, ptr %7, align 2, !tbaa !13
  %8 = getelementptr inbounds nuw i8, ptr %0, i64 16
  tail call void @llvm.memcpy.p0.p0.i64(ptr noundef nonnull align 8 dereferenceable(12) %8, ptr noundef nonnull align 4 dereferenceable(12) %2, i64 12, i1 false), !tbaa.struct !21
  ret void
}